target datalayout = "e-m:e-p270:32:32-p271:32:32-p272:64:64-i64:64-i128:128-f80:128-n8:16:32:64-S128"
target triple = "x86_64-pc-linux-gnu"

; Function Attrs: null_pointer_is_valid sspstrong uwtable
define internal i32 @dissect_hislip(ptr noundef %0, ptr noundef %1, ptr noundef %2, ptr noundef %3) #0 {
  %5 = alloca ptr, align 8
  %6 = alloca ptr, align 8
  %7 = alloca ptr, align 8
  %8 = alloca ptr, align 8
  store ptr %0, ptr %5, align 8
  store ptr %1, ptr %6, align 8
  store ptr %2, ptr %7, align 8
  store ptr %3, ptr %8, align 8
  %9 = load ptr, ptr %5, align 8
  %10 = load ptr, ptr %6, align 8
  %11 = load ptr, ptr %7, align 8
  %12 = load ptr, ptr %8, align 8
  call void @tcp_dissect_pdus(ptr noundef %9, ptr noundef %10, ptr noundef %11, i1 noundef zeroext true, i32 noundef 16, ptr noundef @get_hislip_message_len, ptr noundef @dissect_hislip_message, ptr noundef %12)
  %13 = load ptr, ptr %5, align 8
  %14 = call i32 @tvb_captured_length(ptr noundef %13)
  ret i32 %14
}

; Function Attrs: null_pointer_is_valid sspstrong uwtable
define internal zeroext i1 @dissect_hislip_heur(ptr noundef %0, ptr noundef %1, ptr noundef %2, ptr noundef %3) #0 {
  %5 = alloca i1, align 1
  %6 = alloca ptr, align 8
  %7 = alloca ptr, align 8
  %8 = alloca ptr, align 8
  %9 = alloca ptr, align 8
  store ptr %0, ptr %6, align 8
  store ptr %1, ptr %7, align 8
  store ptr %2, ptr %8, align 8
  store ptr %3, ptr %9, align 8
  %10 = load ptr, ptr %6, align 8
  %11 = call i32 @tvb_captured_length(ptr noundef %10)
  %12 = icmp ult i32 %11, 16
  br i1 %12, label %13, label %14

13:                                               ; preds = %4
  store i1 false, ptr %5, align 1
  br label %26

14:                                               ; preds = %4
  %15 = load ptr, ptr %6, align 8
  %16 = call zeroext i16 @tvb_get_ntohs(ptr noundef %15, i32 noundef 0)
  %17 = zext i16 %16 to i32
  %18 = icmp ne i32 %17, 18515
  br i1 %18, label %19, label %20

19:                                               ; preds = %14
  store i1 false, ptr %5, align 1
  br label %26

20:                                               ; preds = %14
  %21 = load ptr, ptr %6, align 8
  %22 = load ptr, ptr %7, align 8
  %23 = load ptr, ptr %8, align 8
  %24 = load ptr, ptr %9, align 8
  %25 = call i32 @dissect_hislip(ptr noundef %21, ptr noundef %22, ptr noundef %23, ptr noundef %24)
  store i1 true, ptr %5, align 1
  br label %26

26:                                               ; preds = %20, %19, %13
  %27 = load i1, ptr %5, align 1
  ret i1 %27
}