; Function Attrs: null_pointer_is_valid sspstrong uwtable
define internal noundef zeroext i1 @dissect_hislip_heur(ptr noundef %0, ptr noundef %1, ptr noundef %2, ptr noundef %3) #0 {
  %5 = tail call i32 @tvb_captured_length(ptr noundef %0)
  %6 = icmp ult i32 %5, 16
  br i1 %6, label %11, label %7

7:                                                ; preds = %4
  %8 = tail call zeroext i16 @tvb_get_ntohs(ptr noundef %0, i32 noundef 0)
  %.not = icmp eq i16 %8, 18515
  br i1 %.not, label %9, label %11

9:                                                ; preds = %7
  tail call void @tcp_dissect_pdus(ptr noundef %0, ptr noundef %1, ptr noundef %2, i1 noundef zeroext true, i32 noundef 16, ptr noundef nonnull @get_hislip_message_len, ptr noundef nonnull @dissect_hislip_message, ptr noundef %3)
  %10 = tail call i32 @tvb_captured_length(ptr noundef %0)
  br label %11

11:                                               ; preds = %7, %4, %9
  %.0 = phi i1 [ true, %9 ], [ false, %4 ], [ false, %7 ]
  ret i1 %.0
}